target datalayout = "e-m:e-p270:32:32-p271:32:32-p272:64:64-i64:64-i128:128-f80:128-n8:16:32:64-S128"
target triple = "x86_64-pc-linux-gnu"

@ett_rtps_decompressed_type_object = internal global i32 0, align 4
@.str.1234 = private unnamed_addr constant [27 x i8] c"[Uncompressed type object]\00", align 1
@.str.1235 = private unnamed_addr constant [35 x i8] c"[Failed to decompress type object]\00", align 1

; Function Attrs: null_pointer_is_valid sspstrong uwtable
define internal void @rtps_add_zlib_compressed_typeobject(ptr noundef %0, ptr noundef %1, ptr noundef %2, i32 noundef %3, i32 noundef %4, i32 noundef %5, i32 noundef %6, ptr noundef %7) #0 {
  %9 = alloca ptr, align 8
  %10 = alloca ptr, align 8
  %11 = alloca ptr, align 8
  %12 = alloca i32, align 4
  %13 = alloca i32, align 4
  %14 = alloca i32, align 4
  %15 = alloca i32, align 4
  %16 = alloca ptr, align 8
  %17 = alloca ptr, align 8
  %18 = alloca ptr, align 8
  %19 = alloca ptr, align 8
  store ptr %0, ptr %9, align 8
  store ptr %1, ptr %10, align 8
  store ptr %2, ptr %11, align 8
  store i32 %3, ptr %12, align 4
  store i32 %4, ptr %13, align 4
  store i32 %5, ptr %14, align 4
  store i32 %6, ptr %15, align 4
  store ptr %7, ptr %16, align 8
  call void @llvm.lifetime.start.p0(i64 8, ptr %17) #14
  call void @llvm.lifetime.start.p0(i64 8, ptr %18) #14
  call void @llvm.lifetime.start.p0(i64 8, ptr %19) #14
  %20 = load ptr, ptr %11, align 8
  %21 = load i32, ptr %12, align 4
  %22 = load i32, ptr %15, align 4
  %23 = call ptr @tvb_new_subset_length(ptr noundef %20, i32 noundef %21, i32 noundef %22)
  store ptr %23, ptr %18, align 8
  %24 = load ptr, ptr %11, align 8
  %25 = load ptr, ptr %18, align 8
  %26 = load i32, ptr %14, align 4
  %27 = call ptr @tvb_child_uncompress_zlib(ptr noundef %24, ptr noundef %25, i32 noundef 0, i32 noundef %26)
  store ptr %27, ptr %17, align 8
  %28 = load ptr, ptr %17, align 8
  %29 = icmp ne ptr %28, null
  br i1 %29, label %30, label %41

30:                                               ; preds = %8
  %31 = load ptr, ptr %9, align 8
  %32 = load ptr, ptr %17, align 8
  %33 = load i32, ptr @ett_rtps_decompressed_type_object, align 4
  %34 = call ptr @proto_tree_add_subtree(ptr noundef %31, ptr noundef %32, i32 noundef 0, i32 noundef 0, i32 noundef %33, ptr noundef null, ptr noundef @.str.1234)
  store ptr %34, ptr %19, align 8
  %35 = load ptr, ptr %19, align 8
  %36 = load ptr, ptr %10, align 8
  %37 = load ptr, ptr %17, align 8
  %38 = load i32, ptr %13, align 4
  %39 = load i32, ptr %15, align 4
  %40 = load ptr, ptr %16, align 8
  call void @rtps_util_add_typeobject(ptr noundef %35, ptr noundef %36, ptr noundef %37, i32 noundef 0, i32 noundef %38, i32 noundef %39, ptr noundef %40)
  br label %46

41:                                               ; preds = %8
  %42 = load ptr, ptr %9, align 8
  %43 = load ptr, ptr %18, align 8
  %44 = load i32, ptr @ett_rtps_decompressed_type_object, align 4
  %45 = call ptr @proto_tree_add_subtree(ptr noundef %42, ptr noundef %43, i32 noundef 0, i32 noundef 0, i32 noundef %44, ptr noundef null, ptr noundef @.str.1235)
  br label %46

46:                                               ; preds = %41, %30
  call void @llvm.lifetime.end.p0(i64 8, ptr %19) #14
  call void @llvm.lifetime.end.p0(i64 8, ptr %18) #14
  call void @llvm.lifetime.end.p0(i64 8, ptr %17) #14
  ret void
}