; Function Attrs: null_pointer_is_valid sspstrong uwtable
define internal fastcc void @rtps_add_zlib_compressed_typeobject(ptr noundef %0, ptr noundef %1, ptr noundef %2, i32 noundef range(i32 0, -2147483647) %3, i32 noundef %4, i32 noundef %5, ptr noundef captures(address_is_null) %6) unnamed_addr #0 {
  %8 = tail call ptr @tvb_new_subset_length(ptr noundef %2, i32 noundef 0, i32 noundef %5)
  %9 = tail call ptr @tvb_child_uncompress_zlib(ptr noundef %2, ptr noundef %8, i32 noundef 0, i32 noundef %4)
  %.not = icmp eq ptr %9, null
  %10 = load i32, ptr @ett_rtps_decompressed_type_object, align 4
  br i1 %.not, label %13, label %11

11:                                               ; preds = %7
  %12 = tail call ptr @proto_tree_add_subtree(ptr noundef %0, ptr noundef nonnull %9, i32 noundef 0, i32 noundef 0, i32 noundef %10, ptr noundef null, ptr noundef nonnull @.str.1234)
  tail call fastcc void @rtps_util_add_typeobject(ptr noundef %12, ptr noundef %1, ptr noundef nonnull %9, i32 noundef 0, i32 noundef %3, i32 noundef %5, ptr noundef %6)
  br label %15

13:                                               ; preds = %7
  %14 = tail call ptr @proto_tree_add_subtree(ptr noundef %0, ptr noundef %8, i32 noundef 0, i32 noundef 0, i32 noundef %10, ptr noundef null, ptr noundef nonnull @.str.1235)
  br label %15

15:                                               ; preds = %13, %11
  ret void
}